target datalayout = "e-m:e-p270:32:32-p271:32:32-p272:64:64-i64:64-i128:128-f80:128-n8:16:32:64-S128"
target triple = "x86_64-pc-linux-gnu"

%struct.AVFilterContext = type { ptr, ptr, ptr, ptr, ptr, i32, ptr, ptr, i32, ptr, ptr, i32, i32, ptr, ptr, ptr, ptr, i32, ptr, i32, i32 }
%struct.NegateContext = type { ptr, i32, i32, i32, i32, i32, i32, i32, [4 x i32], [4 x i32], [4 x i32], [4 x i8], ptr }

; Function Attrs: nounwind uwtable
define internal i32 @process_command(ptr noundef %0, ptr noundef %1, ptr noundef %2, ptr noundef %3, i32 noundef %4, i32 noundef %5) #0 {
  %7 = alloca i32, align 4
  %8 = alloca ptr, align 8
  %9 = alloca ptr, align 8
  %10 = alloca ptr, align 8
  %11 = alloca ptr, align 8
  %12 = alloca i32, align 4
  %13 = alloca i32, align 4
  %14 = alloca ptr, align 8
  %15 = alloca i32, align 4
  %16 = alloca i32, align 4
  %17 = alloca i32, align 4
  store ptr %0, ptr %8, align 8, !tbaa !4
  store ptr %1, ptr %9, align 8, !tbaa !9
  store ptr %2, ptr %10, align 8, !tbaa !9
  store ptr %3, ptr %11, align 8, !tbaa !9
  store i32 %4, ptr %12, align 4, !tbaa !11
  store i32 %5, ptr %13, align 4, !tbaa !11
  call void @llvm.lifetime.start.p0(i64 8, ptr %14) #5
  %18 = load ptr, ptr %8, align 8, !tbaa !4
  %19 = getelementptr inbounds nuw %struct.AVFilterContext, ptr %18, i32 0, i32 9
  %20 = load ptr, ptr %19, align 8, !tbaa !13
  store ptr %20, ptr %14, align 8, !tbaa !24
  call void @llvm.lifetime.start.p0(i64 4, ptr %15) #5
  %21 = load ptr, ptr %14, align 8, !tbaa !24
  %22 = getelementptr inbounds nuw %struct.NegateContext, ptr %21, i32 0, i32 5
  %23 = load i32, ptr %22, align 8, !tbaa !26
  store i32 %23, ptr %15, align 4, !tbaa !11
  call void @llvm.lifetime.start.p0(i64 4, ptr %16) #5
  %24 = load ptr, ptr %8, align 8, !tbaa !4
  %25 = load ptr, ptr %9, align 8, !tbaa !9
  %26 = load ptr, ptr %10, align 8, !tbaa !9
  %27 = load ptr, ptr %11, align 8, !tbaa !9
  %28 = load i32, ptr %12, align 4, !tbaa !11
  %29 = load i32, ptr %13, align 4, !tbaa !11
  %30 = call i32 @ff_filter_process_command(ptr noundef %24, ptr noundef %25, ptr noundef %26, ptr noundef %27, i32 noundef %28, i32 noundef %29)
  store i32 %30, ptr %16, align 4, !tbaa !11
  %31 = load i32, ptr %16, align 4, !tbaa !11
  %32 = icmp slt i32 %31, 0
  br i1 %32, label %33, label %35

33:                                               ; preds = %6
  %34 = load i32, ptr %16, align 4, !tbaa !11
  store i32 %34, ptr %7, align 4
  store i32 1, ptr %17, align 4
  br label %50

35:                                               ; preds = %6
  %36 = load ptr, ptr %8, align 8, !tbaa !4
  %37 = getelementptr inbounds nuw %struct.AVFilterContext, ptr %36, i32 0, i32 4
  %38 = load ptr, ptr %37, align 8, !tbaa !28
  %39 = getelementptr inbounds ptr, ptr %38, i64 0
  %40 = load ptr, ptr %39, align 8, !tbaa !29
  %41 = call i32 @config_input(ptr noundef %40)
  store i32 %41, ptr %16, align 4, !tbaa !11
  %42 = load i32, ptr %16, align 4, !tbaa !11
  %43 = icmp slt i32 %42, 0
  br i1 %43, label %44, label %48

44:                                               ; preds = %35
  %45 = load i32, ptr %15, align 4, !tbaa !11
  %46 = load ptr, ptr %14, align 8, !tbaa !24
  %47 = getelementptr inbounds nuw %struct.NegateContext, ptr %46, i32 0, i32 5
  store i32 %45, ptr %47, align 8, !tbaa !26
  br label %48

48:                                               ; preds = %44, %35
  %49 = load i32, ptr %16, align 4, !tbaa !11
  store i32 %49, ptr %7, align 4
  store i32 1, ptr %17, align 4
  br label %50

50:                                               ; preds = %48, %33
  call void @llvm.lifetime.end.p0(i64 4, ptr %16) #5
  call void @llvm.lifetime.end.p0(i64 4, ptr %15) #5
  call void @llvm.lifetime.end.p0(i64 8, ptr %14) #5
  %51 = load i32, ptr %7, align 4
  ret i32 %51
}