; Function Attrs: nounwind uwtable
define internal range(i32 -2147483648, 1) i32 @process_command(ptr noundef %0, ptr noundef %1, ptr noundef %2, ptr noundef %3, i32 noundef %4, i32 noundef %5) #0 {
  %7 = getelementptr inbounds nuw i8, ptr %0, i64 72
  %8 = load ptr, ptr %7, align 8, !tbaa !4
  %9 = getelementptr inbounds nuw i8, ptr %8, i64 24
  %10 = load i32, ptr %9, align 8, !tbaa !20
  %11 = tail call i32 @ff_filter_process_command(ptr noundef %0, ptr noundef %1, ptr noundef %2, ptr noundef %3, i32 noundef %4, i32 noundef %5) #6
  %12 = icmp slt i32 %11, 0
  br i1 %12, label %20, label %13

13:                                               ; preds = %6
  %14 = getelementptr inbounds nuw i8, ptr %0, i64 32
  %15 = load ptr, ptr %14, align 8, !tbaa !22
  %16 = load ptr, ptr %15, align 8, !tbaa !23
  %17 = tail call i32 @config_input(ptr noundef %16)
  %18 = icmp slt i32 %17, 0
  br i1 %18, label %19, label %20

19:                                               ; preds = %13
  store i32 %10, ptr %9, align 8, !tbaa !20
  br label %20

20:                                               ; preds = %13, %19, %6
  %.0 = phi i32 [ %11, %6 ], [ %17, %19 ], [ 0, %13 ]
  ret i32 %.0
}